target datalayout = "e-m:e-p270:32:32-p271:32:32-p272:64:64-i64:64-i128:128-f80:128-n8:16:32:64-S128"
target triple = "x86_64-pc-linux-gnu"

@.str = private unnamed_addr constant [7 x i8] c"%s: %s\00", align 1
@rb_eResolution = global i64 0, align 8
@id_error_code = internal global i64 0, align 8

; Function Attrs: inlinehint nounwind sspstrong willreturn memory(none) uwtable
define internal i64 @RB_INT2FIX(i64 noundef %0) #12 {
  %2 = alloca i64, align 8
  %3 = alloca i64, align 8
  %4 = alloca i64, align 8
  %5 = alloca i64, align 8
  %6 = alloca i64, align 8
  %7 = alloca i64, align 8
  store i64 %0, ptr %2, align 8, !tbaa !13
  call void @llvm.lifetime.start.p0(i64 8, ptr %3) #21
  %8 = load i64, ptr %2, align 8, !tbaa !13
  store i64 %8, ptr %3, align 8, !tbaa !13
  call void @llvm.lifetime.start.p0(i64 8, ptr %4) #21
  %9 = load i64, ptr %3, align 8, !tbaa !13
  %10 = shl i64 %9, 1
  %11 = add i64 %10, 1
  store i64 %11, ptr %4, align 8, !tbaa !13
  call void @llvm.lifetime.start.p0(i64 8, ptr %5) #21
  %12 = load i64, ptr %4, align 8, !tbaa !13
  store i64 %12, ptr %5, align 8, !tbaa !13
  call void @llvm.lifetime.start.p0(i64 8, ptr %6) #21
  %13 = load i64, ptr %5, align 8, !tbaa !13
  store i64 %13, ptr %6, align 8, !tbaa !13
  call void @llvm.lifetime.start.p0(i64 8, ptr %7) #21
  %14 = load i64, ptr %6, align 8, !tbaa !13
  store i64 %14, ptr %7, align 8, !tbaa !13
  %15 = load i64, ptr %7, align 8, !tbaa !13
  call void @llvm.lifetime.end.p0(i64 8, ptr %7) #21
  call void @llvm.lifetime.end.p0(i64 8, ptr %6) #21
  call void @llvm.lifetime.end.p0(i64 8, ptr %5) #21
  call void @llvm.lifetime.end.p0(i64 8, ptr %4) #21
  call void @llvm.lifetime.end.p0(i64 8, ptr %3) #21
  ret i64 %15
}

; Function Attrs: inlinehint nounwind sspstrong uwtable
define internal i64 @rb_int2num_inline(i32 noundef %0) #6 {
  %2 = alloca i64, align 8
  %3 = alloca i32, align 4
  store i32 %0, ptr %3, align 4, !tbaa !11
  %4 = load i32, ptr %3, align 4, !tbaa !11
  %5 = sext i32 %4 to i64
  %6 = icmp slt i64 %5, 4611686018427387904
  br i1 %6, label %7, label %15

7:                                                ; preds = %1
  %8 = load i32, ptr %3, align 4, !tbaa !11
  %9 = sext i32 %8 to i64
  %10 = icmp sge i64 %9, -4611686018427387904
  br i1 %10, label %11, label %15

11:                                               ; preds = %7
  %12 = load i32, ptr %3, align 4, !tbaa !11
  %13 = sext i32 %12 to i64
  %14 = call i64 @RB_INT2FIX(i64 noundef %13) #23
  store i64 %14, ptr %2, align 8
  br label %19

15:                                               ; preds = %7, %1
  %16 = load i32, ptr %3, align 4, !tbaa !11
  %17 = sext i32 %16 to i64
  %18 = call i64 @rb_int2big(i64 noundef %17)
  store i64 %18, ptr %2, align 8
  br label %19

19:                                               ; preds = %15, %11
  %20 = load i64, ptr %2, align 8
  ret i64 %20
}

; Function Attrs: noreturn nounwind sspstrong uwtable
define void @rsock_raise_resolution_error(ptr noundef %0, i32 noundef %1) #1 {
  %3 = alloca ptr, align 8
  %4 = alloca i32, align 4
  %5 = alloca i32, align 4
  %6 = alloca i64, align 8
  %7 = alloca i64, align 8
  store ptr %0, ptr %3, align 8, !tbaa !6
  store i32 %1, ptr %4, align 4, !tbaa !11
  call void @llvm.lifetime.start.p0(i64 4, ptr %5) #21
  %8 = load i32, ptr %4, align 4, !tbaa !11
  %9 = icmp eq i32 %8, -11
  br i1 %9, label %10, label %17

10:                                               ; preds = %2
  %11 = call ptr @rb_errno_ptr()
  %12 = load i32, ptr %11, align 4, !tbaa !11
  store i32 %12, ptr %5, align 4, !tbaa !11
  %13 = icmp ne i32 %12, 0
  br i1 %13, label %14, label %17

14:                                               ; preds = %10
  %15 = load i32, ptr %5, align 4, !tbaa !11
  %16 = load ptr, ptr %3, align 8, !tbaa !6
  call void @rb_syserr_fail(i32 noundef %15, ptr noundef %16) #22
  unreachable

17:                                               ; preds = %10, %2
  call void @llvm.lifetime.start.p0(i64 8, ptr %6) #21
  %18 = load ptr, ptr %3, align 8, !tbaa !6
  %19 = load i32, ptr %4, align 4, !tbaa !11
  %20 = call ptr @gai_strerror(i32 noundef %19) #21
  %21 = call i64 (ptr, ...) @rb_sprintf(ptr noundef @.str, ptr noundef %18, ptr noundef %20)
  store i64 %21, ptr %6, align 8, !tbaa !13
  %22 = call i64 @rb_string_value(ptr noundef %6)
  call void @llvm.lifetime.start.p0(i64 8, ptr %7) #21
  %23 = load i64, ptr @rb_eResolution, align 8, !tbaa !13
  %24 = call i64 @rb_class_new_instance(i32 noundef 1, ptr noundef %6, i64 noundef %23)
  store i64 %24, ptr %7, align 8, !tbaa !13
  %25 = load i64, ptr %7, align 8, !tbaa !13
  %26 = load i64, ptr @id_error_code, align 8, !tbaa !13
  %27 = load i32, ptr %4, align 4, !tbaa !11
  %28 = call i64 @rb_int2num_inline(i32 noundef %27)
  %29 = call i64 @rb_ivar_set(i64 noundef %25, i64 noundef %26, i64 noundef %28)
  %30 = load i64, ptr %7, align 8, !tbaa !13
  call void @rb_exc_raise(i64 noundef %30) #22
  unreachable
}