; Function Attrs: noreturn nounwind sspstrong uwtable
define void @rsock_raise_resolution_error(ptr noundef %0, i32 noundef %1) local_unnamed_addr #1 {
  %3 = alloca i64, align 8
  %4 = icmp eq i32 %1, -11
  br i1 %4, label %5, label %9

5:                                                ; preds = %2
  %6 = tail call ptr @rb_errno_ptr() #10
  %7 = load i32, ptr %6, align 4, !tbaa !6
  %.not = icmp eq i32 %7, 0
  br i1 %.not, label %9, label %8

8:                                                ; preds = %5
  tail call void @rb_syserr_fail(i32 noundef %7, ptr noundef %0) #11
  unreachable

9:                                                ; preds = %5, %2
  call void @llvm.lifetime.start.p0(i64 8, ptr nonnull %3) #10
  %10 = tail call ptr @gai_strerror(i32 noundef %1) #10
  %11 = tail call i64 (ptr, ...) @rb_sprintf(ptr noundef nonnull @.str, ptr noundef %0, ptr noundef %10) #10
  store i64 %11, ptr %3, align 8, !tbaa !10
  %12 = call i64 @rb_string_value(ptr noundef nonnull %3) #10
  %13 = load i64, ptr @rb_eResolution, align 8, !tbaa !10
  %14 = call i64 @rb_class_new_instance(i32 noundef 1, ptr noundef nonnull %3, i64 noundef %13) #10
  %15 = load i64, ptr @id_error_code, align 8, !tbaa !10
  %16 = sext i32 %1 to i64
  %17 = shl nsw i64 %16, 1
  %18 = or disjoint i64 %17, 1
  %19 = call i64 @rb_ivar_set(i64 noundef %14, i64 noundef %15, i64 noundef %18) #10
  call void @rb_exc_raise(i64 noundef %14) #11
  unreachable
}